; Function Attrs: null_pointer_is_valid sspstrong uwtable
define internal noundef zeroext i1 @dissect_jxta_SCTP_heur(ptr noundef %0, ptr noundef %1, ptr noundef %2, ptr readnone captures(none) %3) #0 {
  %5 = getelementptr inbounds nuw i8, ptr %1, i64 332
  %6 = load i32, ptr %5, align 4
  %7 = getelementptr inbounds nuw i8, ptr %1, i64 336
  %8 = load i32, ptr %7, align 8
  %9 = tail call i32 @dissect_jxta_stream(ptr noundef %0, ptr noundef %1, ptr noundef %2, ptr poison)
  %or.cond = icmp sgt i32 %9, 0
  br i1 %or.cond, label %10, label %.sink.split

.sink.split:                                      ; preds = %4
  store i32 %6, ptr %5, align 4
  store i32 %8, ptr %7, align 8
  br label %10

10:                                               ; preds = %4, %.sink.split
  ret i1 %or.cond
}